; Function Attrs: mustprogress uwtable
define { ptr, i8 } @_ZNK19EditPluginContainer18editPluginIteratorEb(ptr noundef nonnull align 8 dereferenceable(24) %0, i1 noundef zeroext %1) local_unnamed_addr #10 align 2 {
  %3 = alloca %"class.EditPluginContainer::EditPluginFactoryRangeIterator", align 8
  call void @_ZN19EditPluginContainer30EditPluginFactoryRangeIteratorC1EPKS_b(ptr noundef nonnull align 8 dereferenceable(9) %3, ptr noundef nonnull %0, i1 noundef zeroext %1)
  %.fca.0.load = load ptr, ptr %3, align 8
  %.fca.0.insert = insertvalue { ptr, i8 } poison, ptr %.fca.0.load, 0
  %.fca.1.gep = getelementptr inbounds nuw i8, ptr %3, i64 8
  %.fca.1.load = load i8, ptr %.fca.1.gep, align 8
  %.fca.1.insert = insertvalue { ptr, i8 } %.fca.0.insert, i8 %.fca.1.load, 1
  ret { ptr, i8 } %.fca.1.insert
}